target datalayout = "e-m:e-p270:32:32-p271:32:32-p272:64:64-i64:64-i128:128-f80:128-n8:16:32:64-S128"
target triple = "x86_64-pc-linux-gnu"

%"class.std::locale" = type { ptr }
%"class.boost::locale::detail::format_parser" = type { ptr, %"class.boost::locale::hold_ptr" }
%"class.boost::locale::hold_ptr" = type { ptr }
%"struct.boost::locale::detail::format_parser::data" = type { i32, i64, i32, %"class.boost::locale::ios_info", %"class.std::locale", i8, ptr, ptr }
%"class.boost::locale::ios_info" = type { i64, i32, %"class.std::__cxx11::basic_string", %"class.boost::locale::detail::any_string" }
%"class.std::__cxx11::basic_string" = type { %"struct.std::__cxx11::basic_string<char>::_Alloc_hider", i64, %union.anon }
%"struct.std::__cxx11::basic_string<char>::_Alloc_hider" = type { ptr }
%union.anon = type { i64, [8 x i8] }
%"class.boost::locale::detail::any_string" = type { %"class.std::unique_ptr" }
%"class.std::unique_ptr" = type { %"struct.std::__uniq_ptr_data" }
%"struct.std::__uniq_ptr_data" = type { %"class.std::__uniq_ptr_impl" }
%"class.std::__uniq_ptr_impl" = type { %"class.std::tuple" }
%"class.std::tuple" = type { %"struct.std::_Tuple_impl" }
%"struct.std::_Tuple_impl" = type { %"struct.std::_Head_base.1" }
%"struct.std::_Head_base.1" = type { ptr }
%"class.std::ios_base" = type { ptr, i64, i64, i32, i32, i32, ptr, %"struct.std::ios_base::_Words", [8 x %"struct.std::ios_base::_Words"], i32, ptr, %"class.std::locale" }
%"struct.std::ios_base::_Words" = type { ptr, i64 }

; Function Attrs: mustprogress nounwind uwtable
define linkonce_odr hidden void @_ZNKSt8ios_base6getlocEv(ptr dead_on_unwind noalias writable sret(%"class.std::locale") align 8 %0, ptr noundef nonnull align 8 dereferenceable(216) %1) #8 comdat align 2 {
  %3 = alloca ptr, align 8
  %4 = alloca ptr, align 8
  store ptr %0, ptr %3, align 8
  store ptr %1, ptr %4, align 8, !tbaa !3
  %5 = load ptr, ptr %4, align 8
  %6 = getelementptr inbounds nuw %"class.std::ios_base", ptr %5, i32 0, i32 11
  call void @_ZNSt6localeC1ERKS_(ptr noundef nonnull align 8 dereferenceable(8) %0, ptr noundef nonnull align 8 dereferenceable(8) %6) #3
  ret void
}

; Function Attrs: mustprogress nounwind uwtable
define linkonce_odr hidden noundef i32 @_ZNKSt8ios_base5flagsEv(ptr noundef nonnull align 8 dereferenceable(216) %0) #8 comdat align 2 {
  %2 = alloca ptr, align 8
  store ptr %0, ptr %2, align 8, !tbaa !3
  %3 = load ptr, ptr %2, align 8
  %4 = getelementptr inbounds nuw %"class.std::ios_base", ptr %3, i32 0, i32 3
  %5 = load i32, ptr %4, align 8, !tbaa !35
  ret i32 %5
}

; Function Attrs: mustprogress nounwind uwtable
define linkonce_odr hidden noundef i64 @_ZNKSt8ios_base9precisionEv(ptr noundef nonnull align 8 dereferenceable(216) %0) #8 comdat align 2 {
  %2 = alloca ptr, align 8
  store ptr %0, ptr %2, align 8, !tbaa !3
  %3 = load ptr, ptr %2, align 8
  %4 = getelementptr inbounds nuw %"class.std::ios_base", ptr %3, i32 0, i32 1
  %5 = load i64, ptr %4, align 8, !tbaa !31
  ret i64 %5
}

; Function Attrs: mustprogress nounwind uwtable
define linkonce_odr hidden noundef ptr @_ZN5boost6locale8hold_ptrINS0_6detail13format_parser4dataEEptEv(ptr noundef nonnull align 8 dereferenceable(8) %0) #8 comdat align 2 {
  %2 = alloca ptr, align 8
  store ptr %0, ptr %2, align 8, !tbaa !3
  %3 = load ptr, ptr %2, align 8
  %4 = getelementptr inbounds nuw %"class.boost::locale::hold_ptr", ptr %3, i32 0, i32 0
  %5 = load ptr, ptr %4, align 8, !tbaa !29
  ret ptr %5
}

; Function Attrs: mustprogress nounwind uwtable
define linkonce_odr hidden noundef i32 @_ZNSt14numeric_limitsIjE3maxEv() #8 comdat align 2 {
  ret i32 -1
}

; Function Attrs: mustprogress nounwind uwtable
define linkonce_odr hidden void @_ZN5boost6locale8hold_ptrINS0_6detail13format_parser4dataEEC2EPS4_(ptr noundef nonnull align 8 dereferenceable(8) %0, ptr noundef %1) unnamed_addr #8 comdat align 2 {
  %3 = alloca ptr, align 8
  %4 = alloca ptr, align 8
  store ptr %0, ptr %3, align 8, !tbaa !3
  store ptr %1, ptr %4, align 8, !tbaa !3
  %5 = load ptr, ptr %3, align 8
  %6 = getelementptr inbounds nuw %"class.boost::locale::hold_ptr", ptr %5, i32 0, i32 0
  %7 = load ptr, ptr %4, align 8, !tbaa !3
  store ptr %7, ptr %6, align 8, !tbaa !29
  ret void
}

; Function Attrs: inlinehint mustprogress uwtable
define linkonce_odr hidden void @_ZN5boost6locale6detail13format_parser4dataC2Ev(ptr noundef nonnull align 8 dereferenceable(112) %0) unnamed_addr #6 comdat align 2 {
  %2 = alloca ptr, align 8
  store ptr %0, ptr %2, align 8, !tbaa !3
  %3 = load ptr, ptr %2, align 8
  %4 = getelementptr inbounds nuw %"struct.boost::locale::detail::format_parser::data", ptr %3, i32 0, i32 3
  call void @_ZN5boost6locale8ios_infoC1Ev(ptr noundef nonnull align 8 dereferenceable(56) %4)
  %5 = getelementptr inbounds nuw %"struct.boost::locale::detail::format_parser::data", ptr %3, i32 0, i32 4
  call void @_ZNSt6localeC1Ev(ptr noundef nonnull align 8 dereferenceable(8) %5) #3
  ret void
}

; Function Attrs: mustprogress uwtable
define void @_ZN5boost6locale6detail13format_parserC2ERSt8ios_basePvPFvS5_RKSt6localeE(ptr noundef nonnull align 8 dereferenceable(16) %0, ptr noundef nonnull align 8 dereferenceable(216) %1, ptr noundef %2, ptr noundef %3) unnamed_addr #4 align 2 personality ptr @__gxx_personality_v0 {
  %5 = alloca ptr, align 8
  %6 = alloca ptr, align 8
  %7 = alloca ptr, align 8
  %8 = alloca ptr, align 8
  %9 = alloca ptr, align 8
  %10 = alloca i32, align 4
  %11 = alloca %"class.std::locale", align 8
  store ptr %0, ptr %5, align 8, !tbaa !3
  store ptr %1, ptr %6, align 8, !tbaa !3
  store ptr %2, ptr %7, align 8, !tbaa !3
  store ptr %3, ptr %8, align 8, !tbaa !3
  %12 = load ptr, ptr %5, align 8
  %13 = getelementptr inbounds nuw %"class.boost::locale::detail::format_parser", ptr %12, i32 0, i32 0
  %14 = load ptr, ptr %6, align 8, !tbaa !3
  store ptr %14, ptr %13, align 8, !tbaa !3
  %15 = getelementptr inbounds nuw %"class.boost::locale::detail::format_parser", ptr %12, i32 0, i32 1
  %16 = call noalias noundef nonnull ptr @_Znwm(i64 noundef 112) #17
  invoke void @_ZN5boost6locale6detail13format_parser4dataC2Ev(ptr noundef nonnull align 8 dereferenceable(112) %16)
          to label %17 unwind label %67

17:                                               ; preds = %4
  call void @_ZN5boost6locale8hold_ptrINS0_6detail13format_parser4dataEEC2EPS4_(ptr noundef nonnull align 8 dereferenceable(8) %15, ptr noundef %16)
  %18 = call noundef i32 @_ZNSt14numeric_limitsIjE3maxEv() #3
  %19 = getelementptr inbounds nuw %"class.boost::locale::detail::format_parser", ptr %12, i32 0, i32 1
  %20 = invoke noundef ptr @_ZN5boost6locale8hold_ptrINS0_6detail13format_parser4dataEEptEv(ptr noundef nonnull align 8 dereferenceable(8) %19)
          to label %21 unwind label %71

21:                                               ; preds = %17
  %22 = getelementptr inbounds nuw %"struct.boost::locale::detail::format_parser::data", ptr %20, i32 0, i32 0
  store i32 %18, ptr %22, align 8, !tbaa !7
  %23 = load ptr, ptr %6, align 8, !tbaa !3
  %24 = invoke noundef i64 @_ZNKSt8ios_base9precisionEv(ptr noundef nonnull align 8 dereferenceable(216) %23)
          to label %25 unwind label %71

25:                                               ; preds = %21
  %26 = getelementptr inbounds nuw %"class.boost::locale::detail::format_parser", ptr %12, i32 0, i32 1
  %27 = invoke noundef ptr @_ZN5boost6locale8hold_ptrINS0_6detail13format_parser4dataEEptEv(ptr noundef nonnull align 8 dereferenceable(8) %26)
          to label %28 unwind label %71

28:                                               ; preds = %25
  %29 = getelementptr inbounds nuw %"struct.boost::locale::detail::format_parser::data", ptr %27, i32 0, i32 1
  store i64 %24, ptr %29, align 8, !tbaa !24
  %30 = load ptr, ptr %6, align 8, !tbaa !3
  %31 = invoke noundef i32 @_ZNKSt8ios_base5flagsEv(ptr noundef nonnull align 8 dereferenceable(216) %30)
          to label %32 unwind label %71

32:                                               ; preds = %28
  %33 = getelementptr inbounds nuw %"class.boost::locale::detail::format_parser", ptr %12, i32 0, i32 1
  %34 = invoke noundef ptr @_ZN5boost6locale8hold_ptrINS0_6detail13format_parser4dataEEptEv(ptr noundef nonnull align 8 dereferenceable(8) %33)
          to label %35 unwind label %71

35:                                               ; preds = %32
  %36 = getelementptr inbounds nuw %"struct.boost::locale::detail::format_parser::data", ptr %34, i32 0, i32 2
  store i32 %31, ptr %36, align 8, !tbaa !25
  %37 = load ptr, ptr %6, align 8, !tbaa !3
  %38 = invoke noundef nonnull align 8 dereferenceable(56) ptr @_ZN5boost6locale8ios_info3getERSt8ios_base(ptr noundef nonnull align 8 dereferenceable(216) %37)
          to label %39 unwind label %71

39:                                               ; preds = %35
  %40 = getelementptr inbounds nuw %"class.boost::locale::detail::format_parser", ptr %12, i32 0, i32 1
  %41 = invoke noundef ptr @_ZN5boost6locale8hold_ptrINS0_6detail13format_parser4dataEEptEv(ptr noundef nonnull align 8 dereferenceable(8) %40)
          to label %42 unwind label %71

42:                                               ; preds = %39
  %43 = getelementptr inbounds nuw %"struct.boost::locale::detail::format_parser::data", ptr %41, i32 0, i32 3
  %44 = invoke noundef nonnull align 8 dereferenceable(56) ptr @_ZN5boost6locale8ios_infoaSERKS1_(ptr noundef nonnull align 8 dereferenceable(56) %43, ptr noundef nonnull align 8 dereferenceable(56) %38)
          to label %45 unwind label %71

45:                                               ; preds = %42
  call void @llvm.lifetime.start.p0(i64 8, ptr %11) #3
  %46 = load ptr, ptr %6, align 8, !tbaa !3
  invoke void @_ZNKSt8ios_base6getlocEv(ptr dead_on_unwind writable sret(%"class.std::locale") align 8 %11, ptr noundef nonnull align 8 dereferenceable(216) %46)
          to label %47 unwind label %75

47:                                               ; preds = %45
  %48 = getelementptr inbounds nuw %"class.boost::locale::detail::format_parser", ptr %12, i32 0, i32 1
  %49 = invoke noundef ptr @_ZN5boost6locale8hold_ptrINS0_6detail13format_parser4dataEEptEv(ptr noundef nonnull align 8 dereferenceable(8) %48)
          to label %50 unwind label %79

50:                                               ; preds = %47
  %51 = getelementptr inbounds nuw %"struct.boost::locale::detail::format_parser::data", ptr %49, i32 0, i32 4
  %52 = call noundef nonnull align 8 dereferenceable(8) ptr @_ZNSt6localeaSERKS_(ptr noundef nonnull align 8 dereferenceable(8) %51, ptr noundef nonnull align 8 dereferenceable(8) %11) #3
  call void @_ZNSt6localeD1Ev(ptr noundef nonnull align 8 dereferenceable(8) %11) #3
  call void @llvm.lifetime.end.p0(i64 8, ptr %11) #3
  %53 = getelementptr inbounds nuw %"class.boost::locale::detail::format_parser", ptr %12, i32 0, i32 1
  %54 = invoke noundef ptr @_ZN5boost6locale8hold_ptrINS0_6detail13format_parser4dataEEptEv(ptr noundef nonnull align 8 dereferenceable(8) %53)
          to label %55 unwind label %71

55:                                               ; preds = %50
  %56 = getelementptr inbounds nuw %"struct.boost::locale::detail::format_parser::data", ptr %54, i32 0, i32 5
  store i8 0, ptr %56, align 8, !tbaa !26
  %57 = load ptr, ptr %7, align 8, !tbaa !3
  %58 = getelementptr inbounds nuw %"class.boost::locale::detail::format_parser", ptr %12, i32 0, i32 1
  %59 = invoke noundef ptr @_ZN5boost6locale8hold_ptrINS0_6detail13format_parser4dataEEptEv(ptr noundef nonnull align 8 dereferenceable(8) %58)
          to label %60 unwind label %71

60:                                               ; preds = %55
  %61 = getelementptr inbounds nuw %"struct.boost::locale::detail::format_parser::data", ptr %59, i32 0, i32 6
  store ptr %57, ptr %61, align 8, !tbaa !27
  %62 = load ptr, ptr %8, align 8, !tbaa !3
  %63 = getelementptr inbounds nuw %"class.boost::locale::detail::format_parser", ptr %12, i32 0, i32 1
  %64 = invoke noundef ptr @_ZN5boost6locale8hold_ptrINS0_6detail13format_parser4dataEEptEv(ptr noundef nonnull align 8 dereferenceable(8) %63)
          to label %65 unwind label %71

65:                                               ; preds = %60
  %66 = getelementptr inbounds nuw %"struct.boost::locale::detail::format_parser::data", ptr %64, i32 0, i32 7
  store ptr %62, ptr %66, align 8, !tbaa !28
  ret void

67:                                               ; preds = %4
  %68 = landingpad { ptr, i32 }
          cleanup
  %69 = extractvalue { ptr, i32 } %68, 0
  store ptr %69, ptr %9, align 8
  %70 = extractvalue { ptr, i32 } %68, 1
  store i32 %70, ptr %10, align 4
  call void @_ZdlPvm(ptr noundef %16, i64 noundef 112) #18
  br label %85

71:                                               ; preds = %60, %55, %50, %42, %39, %35, %32, %28, %25, %21, %17
  %72 = landingpad { ptr, i32 }
          cleanup
  %73 = extractvalue { ptr, i32 } %72, 0
  store ptr %73, ptr %9, align 8
  %74 = extractvalue { ptr, i32 } %72, 1
  store i32 %74, ptr %10, align 4
  br label %84

75:                                               ; preds = %45
  %76 = landingpad { ptr, i32 }
          cleanup
  %77 = extractvalue { ptr, i32 } %76, 0
  store ptr %77, ptr %9, align 8
  %78 = extractvalue { ptr, i32 } %76, 1
  store i32 %78, ptr %10, align 4
  br label %83

79:                                               ; preds = %47
  %80 = landingpad { ptr, i32 }
          cleanup
  %81 = extractvalue { ptr, i32 } %80, 0
  store ptr %81, ptr %9, align 8
  %82 = extractvalue { ptr, i32 } %80, 1
  store i32 %82, ptr %10, align 4
  call void @_ZNSt6localeD1Ev(ptr noundef nonnull align 8 dereferenceable(8) %11) #3
  br label %83

83:                                               ; preds = %79, %75
  call void @llvm.lifetime.end.p0(i64 8, ptr %11) #3
  br label %84

84:                                               ; preds = %83, %71
  call void @_ZN5boost6locale8hold_ptrINS0_6detail13format_parser4dataEED2Ev(ptr noundef nonnull align 8 dereferenceable(8) %15) #3
  br label %85

85:                                               ; preds = %84, %67
  %86 = load ptr, ptr %9, align 8
  %87 = load i32, ptr %10, align 4
  %88 = insertvalue { ptr, i32 } poison, ptr %86, 0
  %89 = insertvalue { ptr, i32 } %88, i32 %87, 1
  resume { ptr, i32 } %89
}