; Function Attrs: mustprogress uwtable
define void @_ZN5boost6locale6detail13format_parserC2ERSt8ios_basePvPFvS5_RKSt6localeE(ptr noundef nonnull align 8 dereferenceable(16) %0, ptr noundef nonnull align 8 dereferenceable(216) %1, ptr noundef %2, ptr noundef %3) unnamed_addr #3 align 2 personality ptr @__gxx_personality_v0 {
  %5 = alloca %"class.std::locale", align 8
  store ptr %1, ptr %0, align 8, !tbaa !3
  %6 = getelementptr inbounds nuw i8, ptr %0, i64 8
  %7 = tail call noalias noundef nonnull dereferenceable(112) ptr @_Znwm(i64 noundef 112) #19
  %8 = getelementptr inbounds nuw i8, ptr %7, i64 24
  invoke void @_ZN5boost6locale8ios_infoC1Ev(ptr noundef nonnull align 8 dereferenceable(56) %8)
          to label %9 unwind label %31

9:                                                ; preds = %4
  %10 = getelementptr inbounds nuw i8, ptr %7, i64 80
  tail call void @_ZNSt6localeC1Ev(ptr noundef nonnull align 8 dereferenceable(8) %10) #20
  store ptr %7, ptr %6, align 8, !tbaa !7
  store i32 -1, ptr %7, align 8, !tbaa !9
  %11 = getelementptr inbounds nuw i8, ptr %1, i64 8
  %12 = load i64, ptr %11, align 8, !tbaa !26
  %13 = getelementptr inbounds nuw i8, ptr %7, i64 8
  store i64 %12, ptr %13, align 8, !tbaa !30
  %14 = getelementptr inbounds nuw i8, ptr %1, i64 24
  %15 = load i32, ptr %14, align 8, !tbaa !31
  %16 = getelementptr inbounds nuw i8, ptr %7, i64 16
  store i32 %15, ptr %16, align 8, !tbaa !32
  %17 = invoke noundef nonnull align 8 dereferenceable(56) ptr @_ZN5boost6locale8ios_info3getERSt8ios_base(ptr noundef nonnull align 8 dereferenceable(216) %1)
          to label %18 unwind label %33

18:                                               ; preds = %9
  %19 = load ptr, ptr %6, align 8, !tbaa !7
  %20 = getelementptr inbounds nuw i8, ptr %19, i64 24
  %21 = invoke noundef nonnull align 8 dereferenceable(56) ptr @_ZN5boost6locale8ios_infoaSERKS1_(ptr noundef nonnull align 8 dereferenceable(56) %20, ptr noundef nonnull align 8 dereferenceable(56) %17)
          to label %22 unwind label %33

22:                                               ; preds = %18
  call void @llvm.lifetime.start.p0(i64 8, ptr nonnull %5) #20
  %23 = getelementptr inbounds nuw i8, ptr %1, i64 208
  call void @_ZNSt6localeC1ERKS_(ptr noundef nonnull align 8 dereferenceable(8) %5, ptr noundef nonnull align 8 dereferenceable(8) %23) #20
  %24 = load ptr, ptr %6, align 8, !tbaa !7
  %25 = getelementptr inbounds nuw i8, ptr %24, i64 80
  %26 = call noundef nonnull align 8 dereferenceable(8) ptr @_ZNSt6localeaSERKS_(ptr noundef nonnull align 8 dereferenceable(8) %25, ptr noundef nonnull align 8 dereferenceable(8) %5) #20
  call void @_ZNSt6localeD1Ev(ptr noundef nonnull align 8 dereferenceable(8) %5) #20
  call void @llvm.lifetime.end.p0(i64 8, ptr nonnull %5) #20
  %27 = load ptr, ptr %6, align 8, !tbaa !7
  %28 = getelementptr inbounds nuw i8, ptr %27, i64 88
  store i8 0, ptr %28, align 8, !tbaa !33
  %29 = getelementptr inbounds nuw i8, ptr %27, i64 96
  store ptr %2, ptr %29, align 8, !tbaa !34
  %30 = getelementptr inbounds nuw i8, ptr %27, i64 104
  store ptr %3, ptr %30, align 8, !tbaa !35
  ret void

31:                                               ; preds = %4
  %32 = landingpad { ptr, i32 }
          cleanup
  tail call void @_ZdlPvm(ptr noundef nonnull %7, i64 noundef 112) #21
  br label %35

33:                                               ; preds = %18, %9
  %34 = landingpad { ptr, i32 }
          cleanup
  tail call void @_ZN5boost6locale8hold_ptrINS0_6detail13format_parser4dataEED2Ev(ptr noundef nonnull align 8 dereferenceable(8) %6) #20
  br label %35

35:                                               ; preds = %33, %31
  %.pn = phi { ptr, i32 } [ %34, %33 ], [ %32, %31 ]
  resume { ptr, i32 } %.pn
}